target datalayout = "e-m:e-p270:32:32-p271:32:32-p272:64:64-i64:64-i128:128-f80:128-n8:16:32:64-S128"
target triple = "x86_64-pc-linux-gnu"

%struct.Rectangle = type { float, float, float, float }

; Function Attrs: nounwind uwtable
define zeroext i1 @CheckCollisionRecs(<2 x float> %0, <2 x float> %1, <2 x float> %2, <2 x float> %3) #0 {
  %5 = alloca %struct.Rectangle, align 4
  %6 = alloca %struct.Rectangle, align 4
  %7 = alloca i8, align 1
  %8 = getelementptr inbounds nuw { <2 x float>, <2 x float> }, ptr %5, i32 0, i32 0
  store <2 x float> %0, ptr %8, align 4
  %9 = getelementptr inbounds nuw { <2 x float>, <2 x float> }, ptr %5, i32 0, i32 1
  store <2 x float> %1, ptr %9, align 4
  %10 = getelementptr inbounds nuw { <2 x float>, <2 x float> }, ptr %6, i32 0, i32 0
  store <2 x float> %2, ptr %10, align 4
  %11 = getelementptr inbounds nuw { <2 x float>, <2 x float> }, ptr %6, i32 0, i32 1
  store <2 x float> %3, ptr %11, align 4
  call void @llvm.lifetime.start.p0(i64 1, ptr %7) #8
  store i8 0, ptr %7, align 1
  %12 = getelementptr inbounds nuw %struct.Rectangle, ptr %5, i32 0, i32 0
  %13 = load float, ptr %12, align 4
  %14 = getelementptr inbounds nuw %struct.Rectangle, ptr %6, i32 0, i32 0
  %15 = load float, ptr %14, align 4
  %16 = getelementptr inbounds nuw %struct.Rectangle, ptr %6, i32 0, i32 2
  %17 = load float, ptr %16, align 4
  %18 = fadd float %15, %17
  %19 = fcmp olt float %13, %18
  br i1 %19, label %20, label %48

20:                                               ; preds = %4
  %21 = getelementptr inbounds nuw %struct.Rectangle, ptr %5, i32 0, i32 0
  %22 = load float, ptr %21, align 4
  %23 = getelementptr inbounds nuw %struct.Rectangle, ptr %5, i32 0, i32 2
  %24 = load float, ptr %23, align 4
  %25 = fadd float %22, %24
  %26 = getelementptr inbounds nuw %struct.Rectangle, ptr %6, i32 0, i32 0
  %27 = load float, ptr %26, align 4
  %28 = fcmp ogt float %25, %27
  br i1 %28, label %29, label %48

29:                                               ; preds = %20
  %30 = getelementptr inbounds nuw %struct.Rectangle, ptr %5, i32 0, i32 1
  %31 = load float, ptr %30, align 4
  %32 = getelementptr inbounds nuw %struct.Rectangle, ptr %6, i32 0, i32 1
  %33 = load float, ptr %32, align 4
  %34 = getelementptr inbounds nuw %struct.Rectangle, ptr %6, i32 0, i32 3
  %35 = load float, ptr %34, align 4
  %36 = fadd float %33, %35
  %37 = fcmp olt float %31, %36
  br i1 %37, label %38, label %48

38:                                               ; preds = %29
  %39 = getelementptr inbounds nuw %struct.Rectangle, ptr %5, i32 0, i32 1
  %40 = load float, ptr %39, align 4
  %41 = getelementptr inbounds nuw %struct.Rectangle, ptr %5, i32 0, i32 3
  %42 = load float, ptr %41, align 4
  %43 = fadd float %40, %42
  %44 = getelementptr inbounds nuw %struct.Rectangle, ptr %6, i32 0, i32 1
  %45 = load float, ptr %44, align 4
  %46 = fcmp ogt float %43, %45
  br i1 %46, label %47, label %48

47:                                               ; preds = %38
  store i8 1, ptr %7, align 1
  br label %48

48:                                               ; preds = %47, %38, %29, %20, %4
  %49 = load i8, ptr %7, align 1, !range !3, !noundef !4
  %50 = trunc i8 %49 to i1
  call void @llvm.lifetime.end.p0(i64 1, ptr %7) #8
  ret i1 %50
}