; Function Attrs: mustprogress nofree norecurse nosync nounwind willreturn memory(none) uwtable
define zeroext i1 @CheckCollisionRecs(<2 x float> %0, <2 x float> %1, <2 x float> %2, <2 x float> %3) local_unnamed_addr #11 {
  %.sroa.05.0.vec.extract = extractelement <2 x float> %0, i64 0
  %.sroa.0.0.vec.extract = extractelement <2 x float> %2, i64 0
  %5 = fadd <2 x float> %2, %3
  %6 = extractelement <2 x float> %5, i64 0
  %7 = fcmp olt float %.sroa.05.0.vec.extract, %6
  %8 = fadd <2 x float> %0, %1
  %9 = extractelement <2 x float> %8, i64 0
  %10 = fcmp ogt float %9, %.sroa.0.0.vec.extract
  %or.cond = select i1 %7, i1 %10, i1 false
  br i1 %or.cond, label %11, label %18

11:                                               ; preds = %4
  %12 = fadd <2 x float> %2, %3
  %13 = fcmp olt <2 x float> %0, %12
  %14 = extractelement <2 x i1> %13, i64 1
  %15 = fadd <2 x float> %0, %1
  %16 = fcmp ogt <2 x float> %15, %2
  %17 = extractelement <2 x i1> %16, i64 1
  %or.cond13 = select i1 %14, i1 %17, i1 false
  br label %18

18:                                               ; preds = %11, %4
  %.0 = phi i1 [ false, %4 ], [ %or.cond13, %11 ]
  ret i1 %.0
}